; ModuleID = '27/1928.c'
source_filename = "27/1928.c"
target datalayout = "e-m:e-p270:32:32-p271:32:32-p272:64:64-i64:64-f80:128-n8:16:32:64-S128"
target triple = "x86_64-pc-linux-gnu"

@.str = private unnamed_addr constant [3 x i8] c"%d\00", align 1
@.str.1 = private unnamed_addr constant [10 x i8] c"%lf%lf%lf\00", align 1
@.str.2 = private unnamed_addr constant [19 x i8] c"x1=%.5lf;x2=%.5lf\0A\00", align 1
@.str.3 = private unnamed_addr constant [13 x i8] c"x1=x2=%.5lf\0A\00", align 1
@.str.4 = private unnamed_addr constant [9 x i8] c"x1=%.5lf\00", align 1
@.str.5 = private unnamed_addr constant [2 x i8] c"+\00", align 1
@.str.6 = private unnamed_addr constant [6 x i8] c"%.5lf\00", align 1
@.str.7 = private unnamed_addr constant [3 x i8] c"i;\00", align 1
@.str.8 = private unnamed_addr constant [9 x i8] c"x2=%.5lf\00", align 1
@.str.9 = private unnamed_addr constant [2 x i8] c"-\00", align 1
@.str.10 = private unnamed_addr constant [3 x i8] c"i\0A\00", align 1

; Function Attrs: noinline nounwind uwtable
define dso_local i32 @main() #0 {
  %1 = alloca i32, align 4
  %2 = alloca i32, align 4
  %3 = alloca i32, align 4
  %4 = alloca [20 x double], align 16
  %5 = alloca [20 x double], align 16
  %6 = alloca [20 x double], align 16
  %7 = alloca [20 x double], align 16
  %8 = alloca [20 x double], align 16
  store i32 0, i32* %1, align 4
  %9 = call i32 (i8*, ...) @__isoc99_scanf(i8* getelementptr inbounds ([3 x i8], [3 x i8]* @.str, i64 0, i64 0), i32* %2)
  store i32 0, i32* %3, align 4
  br label %10

10:                                               ; preds = %26, %0
  %11 = load i32, i32* %3, align 4
  %12 = load i32, i32* %2, align 4
  %13 = sub nsw i32 %12, 1
  %14 = icmp sle i32 %11, %13
  br i1 %14, label %15, label %29

15:                                               ; preds = %10
  %16 = load i32, i32* %3, align 4
  %17 = sext i32 %16 to i64
  %18 = getelementptr inbounds [20 x double], [20 x double]* %4, i64 0, i64 %17
  %19 = load i32, i32* %3, align 4
  %20 = sext i32 %19 to i64
  %21 = getelementptr inbounds [20 x double], [20 x double]* %5, i64 0, i64 %20
  %22 = load i32, i32* %3, align 4
  %23 = sext i32 %22 to i64
  %24 = getelementptr inbounds [20 x double], [20 x double]* %6, i64 0, i64 %23
  %25 = call i32 (i8*, ...) @__isoc99_scanf(i8* getelementptr inbounds ([10 x i8], [10 x i8]* @.str.1, i64 0, i64 0), double* %18, double* %21, double* %24)
  br label %26

26:                                               ; preds = %15
  %27 = load i32, i32* %3, align 4
  %28 = add nsw i32 %27, 1
  store i32 %28, i32* %3, align 4
  br label %10

29:                                               ; preds = %10
  store i32 0, i32* %3, align 4
  br label %30

30:                                               ; preds = %296, %29
  %31 = load i32, i32* %3, align 4
  %32 = load i32, i32* %2, align 4
  %33 = sub nsw i32 %32, 1
  %34 = icmp sle i32 %31, %33
  br i1 %34, label %35, label %299

35:                                               ; preds = %30
  %36 = load i32, i32* %3, align 4
  %37 = sext i32 %36 to i64
  %38 = getelementptr inbounds [20 x double], [20 x double]* %5, i64 0, i64 %37
  %39 = load double, double* %38, align 8
  %40 = load i32, i32* %3, align 4
  %41 = sext i32 %40 to i64
  %42 = getelementptr inbounds [20 x double], [20 x double]* %5, i64 0, i64 %41
  %43 = load double, double* %42, align 8
  %44 = fmul double %39, %43
  %45 = load i32, i32* %3, align 4
  %46 = sext i32 %45 to i64
  %47 = getelementptr inbounds [20 x double], [20 x double]* %4, i64 0, i64 %46
  %48 = load double, double* %47, align 8
  %49 = fmul double 4.000000e+00, %48
  %50 = load i32, i32* %3, align 4
  %51 = sext i32 %50 to i64
  %52 = getelementptr inbounds [20 x double], [20 x double]* %6, i64 0, i64 %51
  %53 = load double, double* %52, align 8
  %54 = fmul double %49, %53
  %55 = fsub double %44, %54
  %56 = fcmp oge double %55, 0.000000e+00
  br i1 %56, label %57, label %185

57:                                               ; preds = %35
  %58 = load i32, i32* %3, align 4
  %59 = sext i32 %58 to i64
  %60 = getelementptr inbounds [20 x double], [20 x double]* %5, i64 0, i64 %59
  %61 = load double, double* %60, align 8
  %62 = load i32, i32* %3, align 4
  %63 = sext i32 %62 to i64
  %64 = getelementptr inbounds [20 x double], [20 x double]* %5, i64 0, i64 %63
  %65 = load double, double* %64, align 8
  %66 = fmul double %61, %65
  %67 = load i32, i32* %3, align 4
  %68 = sext i32 %67 to i64
  %69 = getelementptr inbounds [20 x double], [20 x double]* %4, i64 0, i64 %68
  %70 = load double, double* %69, align 8
  %71 = fmul double 4.000000e+00, %70
  %72 = load i32, i32* %3, align 4
  %73 = sext i32 %72 to i64
  %74 = getelementptr inbounds [20 x double], [20 x double]* %6, i64 0, i64 %73
  %75 = load double, double* %74, align 8
  %76 = fmul double %71, %75
  %77 = fsub double %66, %76
  %78 = fcmp ogt double %77, 0.000000e+00
  br i1 %78, label %79, label %161

79:                                               ; preds = %57
  %80 = load i32, i32* %3, align 4
  %81 = sext i32 %80 to i64
  %82 = getelementptr inbounds [20 x double], [20 x double]* %5, i64 0, i64 %81
  %83 = load double, double* %82, align 8
  %84 = fneg double %83
  %85 = load i32, i32* %3, align 4
  %86 = sext i32 %85 to i64
  %87 = getelementptr inbounds [20 x double], [20 x double]* %5, i64 0, i64 %86
  %88 = load double, double* %87, align 8
  %89 = load i32, i32* %3, align 4
  %90 = sext i32 %89 to i64
  %91 = getelementptr inbounds [20 x double], [20 x double]* %5, i64 0, i64 %90
  %92 = load double, double* %91, align 8
  %93 = fmul double %88, %92
  %94 = load i32, i32* %3, align 4
  %95 = sext i32 %94 to i64
  %96 = getelementptr inbounds [20 x double], [20 x double]* %4, i64 0, i64 %95
  %97 = load double, double* %96, align 8
  %98 = fmul double 4.000000e+00, %97
  %99 = load i32, i32* %3, align 4
  %100 = sext i32 %99 to i64
  %101 = getelementptr inbounds [20 x double], [20 x double]* %6, i64 0, i64 %100
  %102 = load double, double* %101, align 8
  %103 = fmul double %98, %102
  %104 = fsub double %93, %103
  %105 = call double @sqrt(double %104) #3
  %106 = fadd double %84, %105
  %107 = load i32, i32* %3, align 4
  %108 = sext i32 %107 to i64
  %109 = getelementptr inbounds [20 x double], [20 x double]* %4, i64 0, i64 %108
  %110 = load double, double* %109, align 8
  %111 = fmul double 2.000000e+00, %110
  %112 = fdiv double %106, %111
  %113 = load i32, i32* %3, align 4
  %114 = sext i32 %113 to i64
  %115 = getelementptr inbounds [20 x double], [20 x double]* %7, i64 0, i64 %114
  store double %112, double* %115, align 8
  %116 = load i32, i32* %3, align 4
  %117 = sext i32 %116 to i64
  %118 = getelementptr inbounds [20 x double], [20 x double]* %5, i64 0, i64 %117
  %119 = load double, double* %118, align 8
  %120 = fneg double %119
  %121 = load i32, i32* %3, align 4
  %122 = sext i32 %121 to i64
  %123 = getelementptr inbounds [20 x double], [20 x double]* %5, i64 0, i64 %122
  %124 = load double, double* %123, align 8
  %125 = load i32, i32* %3, align 4
  %126 = sext i32 %125 to i64
  %127 = getelementptr inbounds [20 x double], [20 x double]* %5, i64 0, i64 %126
  %128 = load double, double* %127, align 8
  %129 = fmul double %124, %128
  %130 = load i32, i32* %3, align 4
  %131 = sext i32 %130 to i64
  %132 = getelementptr inbounds [20 x double], [20 x double]* %4, i64 0, i64 %131
  %133 = load double, double* %132, align 8
  %134 = fmul double 4.000000e+00, %133
  %135 = load i32, i32* %3, align 4
  %136 = sext i32 %135 to i64
  %137 = getelementptr inbounds [20 x double], [20 x double]* %6, i64 0, i64 %136
  %138 = load double, double* %137, align 8
  %139 = fmul double %134, %138
  %140 = fsub double %129, %139
  %141 = call double @sqrt(double %140) #3
  %142 = fsub double %120, %141
  %143 = load i32, i32* %3, align 4
  %144 = sext i32 %143 to i64
  %145 = getelementptr inbounds [20 x double], [20 x double]* %4, i64 0, i64 %144
  %146 = load double, double* %145, align 8
  %147 = fmul double 2.000000e+00, %146
  %148 = fdiv double %142, %147
  %149 = load i32, i32* %3, align 4
  %150 = sext i32 %149 to i64
  %151 = getelementptr inbounds [20 x double], [20 x double]* %8, i64 0, i64 %150
  store double %148, double* %151, align 8
  %152 = load i32, i32* %3, align 4
  %153 = sext i32 %152 to i64
  %154 = getelementptr inbounds [20 x double], [20 x double]* %7, i64 0, i64 %153
  %155 = load double, double* %154, align 8
  %156 = load i32, i32* %3, align 4
  %157 = sext i32 %156 to i64
  %158 = getelementptr inbounds [20 x double], [20 x double]* %8, i64 0, i64 %157
  %159 = load double, double* %158, align 8
  %160 = call i32 (i8*, ...) @printf(i8* getelementptr inbounds ([19 x i8], [19 x i8]* @.str.2, i64 0, i64 0), double %155, double %159)
  br label %184

161:                                              ; preds = %57
  %162 = load i32, i32* %3, align 4
  %163 = sext i32 %162 to i64
  %164 = getelementptr inbounds [20 x double], [20 x double]* %5, i64 0, i64 %163
  %165 = load double, double* %164, align 8
  %166 = fneg double %165
  %167 = load i32, i32* %3, align 4
  %168 = sext i32 %167 to i64
  %169 = getelementptr inbounds [20 x double], [20 x double]* %4, i64 0, i64 %168
  %170 = load double, double* %169, align 8
  %171 = fmul double 2.000000e+00, %170
  %172 = fdiv double %166, %171
  %173 = load i32, i32* %3, align 4
  %174 = sext i32 %173 to i64
  %175 = getelementptr inbounds [20 x double], [20 x double]* %8, i64 0, i64 %174
  store double %172, double* %175, align 8
  %176 = load i32, i32* %3, align 4
  %177 = sext i32 %176 to i64
  %178 = getelementptr inbounds [20 x double], [20 x double]* %7, i64 0, i64 %177
  store double %172, double* %178, align 8
  %179 = load i32, i32* %3, align 4
  %180 = sext i32 %179 to i64
  %181 = getelementptr inbounds [20 x double], [20 x double]* %7, i64 0, i64 %180
  %182 = load double, double* %181, align 8
  %183 = call i32 (i8*, ...) @printf(i8* getelementptr inbounds ([13 x i8], [13 x i8]* @.str.3, i64 0, i64 0), double %182)
  br label %184

184:                                              ; preds = %161, %79
  br label %295

185:                                              ; preds = %35
  %186 = load i32, i32* %3, align 4
  %187 = sext i32 %186 to i64
  %188 = getelementptr inbounds [20 x double], [20 x double]* %5, i64 0, i64 %187
  %189 = load double, double* %188, align 8
  %190 = fneg double %189
  %191 = load i32, i32* %3, align 4
  %192 = sext i32 %191 to i64
  %193 = getelementptr inbounds [20 x double], [20 x double]* %4, i64 0, i64 %192
  %194 = load double, double* %193, align 8
  %195 = fmul double 2.000000e+00, %194
  %196 = fdiv double %190, %195
  %197 = load i32, i32* %3, align 4
  %198 = sext i32 %197 to i64
  %199 = getelementptr inbounds [20 x double], [20 x double]* %7, i64 0, i64 %198
  store double %196, double* %199, align 8
  %200 = load i32, i32* %3, align 4
  %201 = sext i32 %200 to i64
  %202 = getelementptr inbounds [20 x double], [20 x double]* %4, i64 0, i64 %201
  %203 = load double, double* %202, align 8
  %204 = fmul double 4.000000e+00, %203
  %205 = load i32, i32* %3, align 4
  %206 = sext i32 %205 to i64
  %207 = getelementptr inbounds [20 x double], [20 x double]* %6, i64 0, i64 %206
  %208 = load double, double* %207, align 8
  %209 = fmul double %204, %208
  %210 = load i32, i32* %3, align 4
  %211 = sext i32 %210 to i64
  %212 = getelementptr inbounds [20 x double], [20 x double]* %5, i64 0, i64 %211
  %213 = load double, double* %212, align 8
  %214 = load i32, i32* %3, align 4
  %215 = sext i32 %214 to i64
  %216 = getelementptr inbounds [20 x double], [20 x double]* %5, i64 0, i64 %215
  %217 = load double, double* %216, align 8
  %218 = fmul double %213, %217
  %219 = fsub double %209, %218
  %220 = call double @sqrt(double %219) #3
  %221 = load i32, i32* %3, align 4
  %222 = sext i32 %221 to i64
  %223 = getelementptr inbounds [20 x double], [20 x double]* %4, i64 0, i64 %222
  %224 = load double, double* %223, align 8
  %225 = fmul double 2.000000e+00, %224
  %226 = fdiv double %220, %225
  %227 = load i32, i32* %3, align 4
  %228 = sext i32 %227 to i64
  %229 = getelementptr inbounds [20 x double], [20 x double]* %8, i64 0, i64 %228
  store double %226, double* %229, align 8
  %230 = load i32, i32* %3, align 4
  %231 = sext i32 %230 to i64
  %232 = getelementptr inbounds [20 x double], [20 x double]* %5, i64 0, i64 %231
  %233 = load double, double* %232, align 8
  %234 = fneg double %233
  %235 = load i32, i32* %3, align 4
  %236 = sext i32 %235 to i64
  %237 = getelementptr inbounds [20 x double], [20 x double]* %4, i64 0, i64 %236
  %238 = load double, double* %237, align 8
  %239 = fmul double 2.000000e+00, %238
  %240 = fdiv double %234, %239
  %241 = fcmp une double %240, 0.000000e+00
  br i1 %241, label %242, label %267

242:                                              ; preds = %185
  %243 = load i32, i32* %3, align 4
  %244 = sext i32 %243 to i64
  %245 = getelementptr inbounds [20 x double], [20 x double]* %7, i64 0, i64 %244
  %246 = load double, double* %245, align 8
  %247 = call i32 (i8*, ...) @printf(i8* getelementptr inbounds ([9 x i8], [9 x i8]* @.str.4, i64 0, i64 0), double %246)
  %248 = call i32 (i8*, ...) @printf(i8* getelementptr inbounds ([2 x i8], [2 x i8]* @.str.5, i64 0, i64 0))
  %249 = load i32, i32* %3, align 4
  %250 = sext i32 %249 to i64
  %251 = getelementptr inbounds [20 x double], [20 x double]* %8, i64 0, i64 %250
  %252 = load double, double* %251, align 8
  %253 = call i32 (i8*, ...) @printf(i8* getelementptr inbounds ([6 x i8], [6 x i8]* @.str.6, i64 0, i64 0), double %252)
  %254 = call i32 (i8*, ...) @printf(i8* getelementptr inbounds ([3 x i8], [3 x i8]* @.str.7, i64 0, i64 0))
  %255 = load i32, i32* %3, align 4
  %256 = sext i32 %255 to i64
  %257 = getelementptr inbounds [20 x double], [20 x double]* %7, i64 0, i64 %256
  %258 = load double, double* %257, align 8
  %259 = call i32 (i8*, ...) @printf(i8* getelementptr inbounds ([9 x i8], [9 x i8]* @.str.8, i64 0, i64 0), double %258)
  %260 = call i32 (i8*, ...) @printf(i8* getelementptr inbounds ([2 x i8], [2 x i8]* @.str.9, i64 0, i64 0))
  %261 = load i32, i32* %3, align 4
  %262 = sext i32 %261 to i64
  %263 = getelementptr inbounds [20 x double], [20 x double]* %8, i64 0, i64 %262
  %264 = load double, double* %263, align 8
  %265 = call i32 (i8*, ...) @printf(i8* getelementptr inbounds ([6 x i8], [6 x i8]* @.str.6, i64 0, i64 0), double %264)
  %266 = call i32 (i8*, ...) @printf(i8* getelementptr inbounds ([3 x i8], [3 x i8]* @.str.10, i64 0, i64 0))
  br label %294

267:                                              ; preds = %185
  %268 = load i32, i32* %3, align 4
  %269 = sext i32 %268 to i64
  %270 = getelementptr inbounds [20 x double], [20 x double]* %7, i64 0, i64 %269
  %271 = load double, double* %270, align 8
  %272 = fneg double %271
  %273 = call i32 (i8*, ...) @printf(i8* getelementptr inbounds ([9 x i8], [9 x i8]* @.str.4, i64 0, i64 0), double %272)
  %274 = call i32 (i8*, ...) @printf(i8* getelementptr inbounds ([2 x i8], [2 x i8]* @.str.5, i64 0, i64 0))
  %275 = load i32, i32* %3, align 4
  %276 = sext i32 %275 to i64
  %277 = getelementptr inbounds [20 x double], [20 x double]* %8, i64 0, i64 %276
  %278 = load double, double* %277, align 8
  %279 = call i32 (i8*, ...) @printf(i8* getelementptr inbounds ([6 x i8], [6 x i8]* @.str.6, i64 0, i64 0), double %278)
  %280 = call i32 (i8*, ...) @printf(i8* getelementptr inbounds ([3 x i8], [3 x i8]* @.str.7, i64 0, i64 0))
  %281 = load i32, i32* %3, align 4
  %282 = sext i32 %281 to i64
  %283 = getelementptr inbounds [20 x double], [20 x double]* %7, i64 0, i64 %282
  %284 = load double, double* %283, align 8
  %285 = fneg double %284
  %286 = call i32 (i8*, ...) @printf(i8* getelementptr inbounds ([9 x i8], [9 x i8]* @.str.8, i64 0, i64 0), double %285)
  %287 = call i32 (i8*, ...) @printf(i8* getelementptr inbounds ([2 x i8], [2 x i8]* @.str.9, i64 0, i64 0))
  %288 = load i32, i32* %3, align 4
  %289 = sext i32 %288 to i64
  %290 = getelementptr inbounds [20 x double], [20 x double]* %8, i64 0, i64 %289
  %291 = load double, double* %290, align 8
  %292 = call i32 (i8*, ...) @printf(i8* getelementptr inbounds ([6 x i8], [6 x i8]* @.str.6, i64 0, i64 0), double %291)
  %293 = call i32 (i8*, ...) @printf(i8* getelementptr inbounds ([3 x i8], [3 x i8]* @.str.10, i64 0, i64 0))
  br label %294

294:                                              ; preds = %267, %242
  br label %295

295:                                              ; preds = %294, %184
  br label %296

296:                                              ; preds = %295
  %297 = load i32, i32* %3, align 4
  %298 = add nsw i32 %297, 1
  store i32 %298, i32* %3, align 4
  br label %30

299:                                              ; preds = %30
  ret i32 0
}

declare dso_local i32 @__isoc99_scanf(i8*, ...) #1

; Function Attrs: nounwind
declare dso_local double @sqrt(double) #2

declare dso_local i32 @printf(i8*, ...) #1


!llvm.module.flags = !{!0}
!llvm.ident = !{!1}

!0 = !{i32 1, !"wchar_size", i32 4}
!1 = !{!"clang version 10.0.0-4ubuntu1 "}
