; ModuleID = 'source-C-CXX/26/1928.c'
source_filename = "source-C-CXX/26/1928.c"
target datalayout = "e-m:e-p270:32:32-p271:32:32-p272:64:64-i64:64-f80:128-n8:16:32:64-S128"
target triple = "x86_64-pc-linux-gnu"

@.str = private unnamed_addr constant [3 x i8] c"%d\00", align 1
@.str.1 = private unnamed_addr constant [10 x i8] c"%lf%lf%lf\00", align 1
@.str.2 = private unnamed_addr constant [19 x i8] c"x1=%.5lf;x2=%.5lf\0A\00", align 1
@.str.3 = private unnamed_addr constant [13 x i8] c"x1=x2=%.5lf\0A\00", align 1
@.str.4 = private unnamed_addr constant [9 x i8] c"x1=%.5lf\00", align 1
@.str.6 = private unnamed_addr constant [6 x i8] c"%.5lf\00", align 1
@.str.7 = private unnamed_addr constant [3 x i8] c"i;\00", align 1
@.str.8 = private unnamed_addr constant [9 x i8] c"x2=%.5lf\00", align 1
@str.11 = private unnamed_addr constant [2 x i8] c"i\00", align 1

; Function Attrs: nofree nounwind sspstrong uwtable
define dso_local i32 @main() local_unnamed_addr #0 {
  %1 = alloca i32, align 4
  %2 = alloca [20 x double], align 16
  %3 = alloca [20 x double], align 16
  %4 = alloca [20 x double], align 16
  %5 = bitcast i32* %1 to i8*
  call void @llvm.lifetime.start.p0i8(i64 4, i8* nonnull %5) #5
  %6 = bitcast [20 x double]* %2 to i8*
  call void @llvm.lifetime.start.p0i8(i64 160, i8* nonnull %6) #5
  %7 = bitcast [20 x double]* %3 to i8*
  call void @llvm.lifetime.start.p0i8(i64 160, i8* nonnull %7) #5
  %8 = bitcast [20 x double]* %4 to i8*
  call void @llvm.lifetime.start.p0i8(i64 160, i8* nonnull %8) #5
  %9 = call i32 (i8*, ...) @__isoc99_scanf(i8* getelementptr inbounds ([3 x i8], [3 x i8]* @.str, i64 0, i64 0), i32* nonnull %1)
  %10 = load i32, i32* %1, align 4, !tbaa !5
  %11 = icmp sgt i32 %10, 0
  br i1 %11, label %14, label %100

12:                                               ; preds = %14
  %13 = icmp sgt i32 %21, 0
  br i1 %13, label %24, label %100

14:                                               ; preds = %0, %14
  %15 = phi i64 [ %20, %14 ], [ 0, %0 ]
  %16 = getelementptr inbounds [20 x double], [20 x double]* %2, i64 0, i64 %15
  %17 = getelementptr inbounds [20 x double], [20 x double]* %3, i64 0, i64 %15
  %18 = getelementptr inbounds [20 x double], [20 x double]* %4, i64 0, i64 %15
  %19 = call i32 (i8*, ...) @__isoc99_scanf(i8* getelementptr inbounds ([10 x i8], [10 x i8]* @.str.1, i64 0, i64 0), double* nonnull %16, double* nonnull %17, double* nonnull %18)
  %20 = add nuw nsw i64 %15, 1
  %21 = load i32, i32* %1, align 4, !tbaa !5
  %22 = sext i32 %21 to i64
  %23 = icmp slt i64 %20, %22
  br i1 %23, label %14, label %12, !llvm.loop !9

24:                                               ; preds = %12, %95
  %25 = phi i64 [ %96, %95 ], [ 0, %12 ]
  %26 = getelementptr inbounds [20 x double], [20 x double]* %3, i64 0, i64 %25
  %27 = load double, double* %26, align 8, !tbaa !11
  %28 = fmul double %27, %27
  %29 = getelementptr inbounds [20 x double], [20 x double]* %2, i64 0, i64 %25
  %30 = load double, double* %29, align 8, !tbaa !11
  %31 = fmul double %30, 4.000000e+00
  %32 = getelementptr inbounds [20 x double], [20 x double]* %4, i64 0, i64 %25
  %33 = load double, double* %32, align 8, !tbaa !11
  %34 = fmul double %31, %33
  %35 = fsub double %28, %34
  %36 = fcmp ult double %35, 0.000000e+00
  br i1 %36, label %63, label %37

37:                                               ; preds = %24
  %38 = fcmp ogt double %35, 0.000000e+00
  br i1 %38, label %39, label %58

39:                                               ; preds = %37
  %40 = call double @sqrt(double %35) #5
  %41 = fsub double %40, %27
  %42 = load double, double* %29, align 8, !tbaa !11
  %43 = fmul double %42, 2.000000e+00
  %44 = fdiv double %41, %43
  %45 = load double, double* %26, align 8, !tbaa !11
  %46 = fneg double %45
  %47 = fmul double %45, %45
  %48 = fmul double %42, 4.000000e+00
  %49 = load double, double* %32, align 8, !tbaa !11
  %50 = fmul double %48, %49
  %51 = fsub double %47, %50
  %52 = call double @sqrt(double %51) #5
  %53 = fsub double %46, %52
  %54 = load double, double* %29, align 8, !tbaa !11
  %55 = fmul double %54, 2.000000e+00
  %56 = fdiv double %53, %55
  %57 = call i32 (i8*, ...) @printf(i8* nonnull dereferenceable(1) getelementptr inbounds ([19 x i8], [19 x i8]* @.str.2, i64 0, i64 0), double %44, double %56)
  br label %95

58:                                               ; preds = %37
  %59 = fneg double %27
  %60 = fmul double %30, 2.000000e+00
  %61 = fdiv double %59, %60
  %62 = call i32 (i8*, ...) @printf(i8* nonnull dereferenceable(1) getelementptr inbounds ([13 x i8], [13 x i8]* @.str.3, i64 0, i64 0), double %61)
  br label %95

63:                                               ; preds = %24
  %64 = fneg double %27
  %65 = fmul double %30, 2.000000e+00
  %66 = fdiv double %64, %65
  %67 = fsub double %34, %28
  %68 = call double @sqrt(double %67) #5
  %69 = load double, double* %29, align 8, !tbaa !11
  %70 = fmul double %69, 2.000000e+00
  %71 = fdiv double %68, %70
  %72 = load double, double* %26, align 8, !tbaa !11
  %73 = fneg double %72
  %74 = fdiv double %73, %70
  %75 = fcmp une double %74, 0.000000e+00
  br i1 %75, label %76, label %85

76:                                               ; preds = %63
  %77 = call i32 (i8*, ...) @printf(i8* nonnull dereferenceable(1) getelementptr inbounds ([9 x i8], [9 x i8]* @.str.4, i64 0, i64 0), double %66)
  %78 = call i32 @putchar(i32 43)
  %79 = call i32 (i8*, ...) @printf(i8* nonnull dereferenceable(1) getelementptr inbounds ([6 x i8], [6 x i8]* @.str.6, i64 0, i64 0), double %71)
  %80 = call i32 (i8*, ...) @printf(i8* nonnull dereferenceable(1) getelementptr inbounds ([3 x i8], [3 x i8]* @.str.7, i64 0, i64 0))
  %81 = call i32 (i8*, ...) @printf(i8* nonnull dereferenceable(1) getelementptr inbounds ([9 x i8], [9 x i8]* @.str.8, i64 0, i64 0), double %66)
  %82 = call i32 @putchar(i32 45)
  %83 = call i32 (i8*, ...) @printf(i8* nonnull dereferenceable(1) getelementptr inbounds ([6 x i8], [6 x i8]* @.str.6, i64 0, i64 0), double %71)
  %84 = call i32 @puts(i8* nonnull dereferenceable(1) getelementptr inbounds ([2 x i8], [2 x i8]* @str.11, i64 0, i64 0))
  br label %95

85:                                               ; preds = %63
  %86 = fneg double %66
  %87 = call i32 (i8*, ...) @printf(i8* nonnull dereferenceable(1) getelementptr inbounds ([9 x i8], [9 x i8]* @.str.4, i64 0, i64 0), double %86)
  %88 = call i32 @putchar(i32 43)
  %89 = call i32 (i8*, ...) @printf(i8* nonnull dereferenceable(1) getelementptr inbounds ([6 x i8], [6 x i8]* @.str.6, i64 0, i64 0), double %71)
  %90 = call i32 (i8*, ...) @printf(i8* nonnull dereferenceable(1) getelementptr inbounds ([3 x i8], [3 x i8]* @.str.7, i64 0, i64 0))
  %91 = call i32 (i8*, ...) @printf(i8* nonnull dereferenceable(1) getelementptr inbounds ([9 x i8], [9 x i8]* @.str.8, i64 0, i64 0), double %86)
  %92 = call i32 @putchar(i32 45)
  %93 = call i32 (i8*, ...) @printf(i8* nonnull dereferenceable(1) getelementptr inbounds ([6 x i8], [6 x i8]* @.str.6, i64 0, i64 0), double %71)
  %94 = call i32 @puts(i8* nonnull dereferenceable(1) getelementptr inbounds ([2 x i8], [2 x i8]* @str.11, i64 0, i64 0))
  br label %95

95:                                               ; preds = %58, %39, %85, %76
  %96 = add nuw nsw i64 %25, 1
  %97 = load i32, i32* %1, align 4, !tbaa !5
  %98 = sext i32 %97 to i64
  %99 = icmp slt i64 %96, %98
  br i1 %99, label %24, label %100, !llvm.loop !13

100:                                              ; preds = %95, %0, %12
  call void @llvm.lifetime.end.p0i8(i64 160, i8* nonnull %8) #5
  call void @llvm.lifetime.end.p0i8(i64 160, i8* nonnull %7) #5
  call void @llvm.lifetime.end.p0i8(i64 160, i8* nonnull %6) #5
  call void @llvm.lifetime.end.p0i8(i64 4, i8* nonnull %5) #5
  ret i32 0
}

; Function Attrs: argmemonly mustprogress nofree nosync nounwind willreturn
declare void @llvm.lifetime.start.p0i8(i64 immarg, i8* nocapture) #1

; Function Attrs: nofree nounwind
declare noundef i32 @__isoc99_scanf(i8* nocapture noundef readonly, ...) local_unnamed_addr #2

; Function Attrs: mustprogress nofree nounwind willreturn
declare double @sqrt(double) local_unnamed_addr #3

; Function Attrs: nofree nounwind
declare noundef i32 @printf(i8* nocapture noundef readonly, ...) local_unnamed_addr #2

; Function Attrs: argmemonly mustprogress nofree nosync nounwind willreturn
declare void @llvm.lifetime.end.p0i8(i64 immarg, i8* nocapture) #1

; Function Attrs: nofree nounwind
declare noundef i32 @putchar(i32 noundef) local_unnamed_addr #4

; Function Attrs: nofree nounwind
declare noundef i32 @puts(i8* nocapture noundef readonly) local_unnamed_addr #4


!llvm.module.flags = !{!0, !1, !2, !3}
!llvm.ident = !{!4}

!0 = !{i32 1, !"wchar_size", i32 4}
!1 = !{i32 7, !"PIC Level", i32 2}
!2 = !{i32 7, !"PIE Level", i32 2}
!3 = !{i32 7, !"uwtable", i32 1}
!4 = !{!"clang version 13.0.0"}
!5 = !{!6, !6, i64 0}
!6 = !{!"int", !7, i64 0}
!7 = !{!"omnipotent char", !8, i64 0}
!8 = !{!"Simple C/C++ TBAA"}
!9 = distinct !{!9, !10}
!10 = !{!"llvm.loop.mustprogress"}
!11 = !{!12, !12, i64 0}
!12 = !{!"double", !7, i64 0}
!13 = distinct !{!13, !10}
